(lp0
(S'cppflags'
p1
ccopy_reg
_reconstructor
p2
(cino.utils
SpaceList
p3
c__builtin__
list
p4
(lp5
S'-mmcu=atmega328p'
p6
aS'-DF_CPU=16000000L'
p7
aS'-DARDUINO=105'
p8
aS'-I/Applications/Arduino.app/Contents/Resources/Java/hardware/arduino/cores/arduino'
p9
aS'-ffunction-sections'
p10
aS'-fdata-sections'
p11
aS'-g'
p12
aS'-Os'
p13
aS'-w'
p14
aS'-I/Applications/Arduino.app/Contents/Resources/Java/hardware/arduino/variants/standard'
p15
aS'-I/Applications/Arduino.app/Contents/Resources/Java/libraries/EEPROM'
p16
aS'-Ilib/LiquidCrystal'
p17
aS'-Ilib/Wire'
p18
aS'-Ilib/Wire/utility'
p19
aS'-I/Applications/Arduino.app/Contents/Resources/Java/hardware/arduino/cores/arduino'
p20
aS'-I/Applications/Arduino.app/Contents/Resources/Java/hardware/arduino/cores/arduino/avr-libc'
p21
atp22
Rp23
tp24
a(S'cc'
p25
S'/Applications/Arduino.app/Contents/Resources/Java/hardware/tools/avr/bin/avr-gcc'
p26
tp27
a(S'build_dir'
p28
S'.build/uno'
p29
tp30
a(S'avrdude'
p31
S'/Applications/Arduino.app/Contents/Resources/Java/hardware/tools/avr/bin/avrdude'
p32
tp33
a(S'ar'
p34
S'/Applications/Arduino.app/Contents/Resources/Java/hardware/tools/avr/bin/avr-ar'
p35
tp36
a(S'names'
p37
(dp38
S'cpp'
p39
S'%s.cpp'
p40
sS'obj'
p41
S'%s.o'
p42
sS'lib'
p43
S'lib%s.a'
p44
sS'deps'
p45
S'%s.d'
p46
stp47
a(S'ldflags'
p48
g2
(g3
g4
(lp49
g6
aS'-Wl,-Os'
p50
aS'-Wl,--gc-sections'
p51
atp52
Rp53
tp54
a(S'arduino_lib_version'
p55
g2
(cino.environment
Version
p56
c__builtin__
tuple
p57
(I1
I0
I5
tp58
tp59
Rp60
tp61
a(S'objcopy'
p62
S'/Applications/Arduino.app/Contents/Resources/Java/hardware/tools/avr/bin/avr-objcopy'
p63
tp64
a(S'board_models'
p65
cino.environment
BoardModels
p66
((lp67
(lp68
S'uno'
p69
a(dp70
S'bootloader'
p71
(dp72
S'extended_fuses'
p73
S'0x05'
p74
sS'high_fuses'
p75
S'0xde'
p76
sS'low_fuses'
p77
S'0xff'
p78
sS'lock_bits'
p79
S'0x0F'
p80
sS'file'
p81
S'optiboot_atmega328.hex'
p82
sS'path'
p83
S'optiboot'
p84
sS'unlock_bits'
p85
S'0x3F'
p86
ssS'upload'
p87
(dp88
S'protocol'
p89
S'arduino'
p90
sS'maximum_size'
p91
S'32256'
p92
sS'speed'
p93
S'115200'
p94
ssS'build'
p95
(dp96
S'core'
p97
S'arduino'
p98
sS'mcu'
p99
S'atmega328p'
p100
sS'f_cpu'
p101
S'16000000L'
p102
sS'variant'
p103
S'standard'
p104
ssS'name'
p105
S'Arduino Uno'
p106
saa(lp107
S'atmega328'
p108
a(dp109
S'bootloader'
p110
(dp111
S'extended_fuses'
p112
S'0x05'
p113
sS'high_fuses'
p114
S'0xDA'
p115
sS'low_fuses'
p116
S'0xFF'
p117
sS'lock_bits'
p118
S'0x0F'
p119
sS'file'
p120
S'ATmegaBOOT_168_atmega328.hex'
p121
sS'path'
p122
S'atmega'
p123
sS'unlock_bits'
p124
S'0x3F'
p125
ssS'upload'
p126
(dp127
S'protocol'
p128
S'arduino'
p129
sS'maximum_size'
p130
S'30720'
p131
sS'speed'
p132
S'57600'
p133
ssS'build'
p134
(dp135
S'core'
p136
S'arduino'
p137
sS'mcu'
p138
S'atmega328p'
p139
sS'f_cpu'
p140
S'16000000L'
p141
sS'variant'
p142
S'standard'
p143
ssS'name'
p144
S'Arduino Duemilanove w/ ATmega328'
p145
saa(lp146
S'diecimila'
p147
a(dp148
S'bootloader'
p149
(dp150
S'extended_fuses'
p151
S'0x00'
p152
sS'high_fuses'
p153
S'0xdd'
p154
sS'low_fuses'
p155
S'0xff'
p156
sS'lock_bits'
p157
S'0x0F'
p158
sS'file'
p159
S'ATmegaBOOT_168_diecimila.hex'
p160
sS'path'
p161
S'atmega'
p162
sS'unlock_bits'
p163
S'0x3F'
p164
ssS'upload'
p165
(dp166
S'protocol'
p167
S'arduino'
p168
sS'maximum_size'
p169
S'14336'
p170
sS'speed'
p171
S'19200'
p172
ssS'build'
p173
(dp174
S'core'
p175
S'arduino'
p176
sS'mcu'
p177
S'atmega168'
p178
sS'f_cpu'
p179
S'16000000L'
p180
sS'variant'
p181
S'standard'
p182
ssS'name'
p183
S'Arduino Diecimila or Duemilanove w/ ATmega168'
p184
saa(lp185
S'nano328'
p186
a(dp187
S'bootloader'
p188
(dp189
S'extended_fuses'
p190
S'0x05'
p191
sS'high_fuses'
p192
S'0xDA'
p193
sS'low_fuses'
p194
S'0xFF'
p195
sS'lock_bits'
p196
S'0x0F'
p197
sS'file'
p198
S'ATmegaBOOT_168_atmega328.hex'
p199
sS'path'
p200
S'atmega'
p201
sS'unlock_bits'
p202
S'0x3F'
p203
ssS'upload'
p204
(dp205
S'protocol'
p206
S'arduino'
p207
sS'maximum_size'
p208
S'30720'
p209
sS'speed'
p210
S'57600'
p211
ssS'build'
p212
(dp213
S'core'
p214
S'arduino'
p215
sS'mcu'
p216
S'atmega328p'
p217
sS'f_cpu'
p218
S'16000000L'
p219
sS'variant'
p220
S'eightanaloginputs'
p221
ssS'name'
p222
S'Arduino Nano w/ ATmega328'
p223
saa(lp224
S'nano'
p225
a(dp226
S'bootloader'
p227
(dp228
S'extended_fuses'
p229
S'0x00'
p230
sS'high_fuses'
p231
S'0xdd'
p232
sS'low_fuses'
p233
S'0xff'
p234
sS'lock_bits'
p235
S'0x0F'
p236
sS'file'
p237
S'ATmegaBOOT_168_diecimila.hex'
p238
sS'path'
p239
S'atmega'
p240
sS'unlock_bits'
p241
S'0x3F'
p242
ssS'upload'
p243
(dp244
S'protocol'
p245
S'arduino'
p246
sS'maximum_size'
p247
S'14336'
p248
sS'speed'
p249
S'19200'
p250
ssS'build'
p251
(dp252
S'core'
p253
S'arduino'
p254
sS'mcu'
p255
S'atmega168'
p256
sS'f_cpu'
p257
S'16000000L'
p258
sS'variant'
p259
S'eightanaloginputs'
p260
ssS'name'
p261
S'Arduino Nano w/ ATmega168'
p262
saa(lp263
S'mega2560'
p264
a(dp265
S'bootloader'
p266
(dp267
S'extended_fuses'
p268
S'0xFD'
p269
sS'high_fuses'
p270
S'0xD8'
p271
sS'low_fuses'
p272
S'0xFF'
p273
sS'lock_bits'
p274
S'0x0F'
p275
sS'file'
p276
S'stk500boot_v2_mega2560.hex'
p277
sS'path'
p278
S'stk500v2'
p279
sS'unlock_bits'
p280
S'0x3F'
p281
ssS'upload'
p282
(dp283
S'protocol'
p284
S'wiring'
p285
sS'maximum_size'
p286
S'258048'
p287
sS'speed'
p288
S'115200'
p289
ssS'build'
p290
(dp291
S'core'
p292
S'arduino'
p293
sS'mcu'
p294
S'atmega2560'
p295
sS'f_cpu'
p296
S'16000000L'
p297
sS'variant'
p298
S'mega'
p299
ssS'name'
p300
S'Arduino Mega 2560 or Mega ADK'
p301
saa(lp302
S'mega'
p303
a(dp304
S'bootloader'
p305
(dp306
S'extended_fuses'
p307
S'0xF5'
p308
sS'high_fuses'
p309
S'0xDA'
p310
sS'low_fuses'
p311
S'0xFF'
p312
sS'lock_bits'
p313
S'0x0F'
p314
sS'file'
p315
S'ATmegaBOOT_168_atmega1280.hex'
p316
sS'path'
p317
S'atmega'
p318
sS'unlock_bits'
p319
S'0x3F'
p320
ssS'upload'
p321
(dp322
S'protocol'
p323
S'arduino'
p324
sS'maximum_size'
p325
S'126976'
p326
sS'speed'
p327
S'57600'
p328
ssS'build'
p329
(dp330
S'core'
p331
S'arduino'
p332
sS'mcu'
p333
S'atmega1280'
p334
sS'f_cpu'
p335
S'16000000L'
p336
sS'variant'
p337
S'mega'
p338
ssS'name'
p339
S'Arduino Mega (ATmega1280)'
p340
saa(lp341
S'leonardo'
p342
a(dp343
S'bootloader'
p344
(dp345
S'extended_fuses'
p346
S'0xcb'
p347
sS'high_fuses'
p348
S'0xd8'
p349
sS'low_fuses'
p350
S'0xff'
p351
sS'lock_bits'
p352
S'0x2F'
p353
sS'file'
p354
S'Caterina-Leonardo.hex'
p355
sS'path'
p356
S'caterina'
p357
sS'unlock_bits'
p358
S'0x3F'
p359
ssS'upload'
p360
(dp361
S'protocol'
p362
S'avr109'
p363
sS'maximum_size'
p364
S'28672'
p365
sS'speed'
p366
S'57600'
p367
sS'disable_flushing'
p368
S'true'
p369
ssS'build'
p370
(dp371
S'core'
p372
S'arduino'
p373
sS'f_cpu'
p374
S'16000000L'
p375
sS'vid'
p376
S'0x2341'
p377
sS'pid'
p378
S'0x8036'
p379
sS'variant'
p380
S'leonardo'
p381
sS'mcu'
p382
S'atmega32u4'
p383
ssS'name'
p384
S'Arduino Leonardo'
p385
saa(lp386
S'esplora'
p387
a(dp388
S'bootloader'
p389
(dp390
S'extended_fuses'
p391
S'0xcb'
p392
sS'high_fuses'
p393
S'0xd8'
p394
sS'low_fuses'
p395
S'0xff'
p396
sS'lock_bits'
p397
S'0x2F'
p398
sS'file'
p399
S'Caterina-Esplora.hex'
p400
sS'path'
p401
S'caterina'
p402
sS'unlock_bits'
p403
S'0x3F'
p404
ssS'upload'
p405
(dp406
S'protocol'
p407
S'avr109'
p408
sS'maximum_size'
p409
S'28672'
p410
sS'speed'
p411
S'57600'
p412
sS'disable_flushing'
p413
S'true'
p414
ssS'build'
p415
(dp416
S'core'
p417
S'arduino'
p418
sS'f_cpu'
p419
S'16000000L'
p420
sS'vid'
p421
S'0x2341'
p422
sS'pid'
p423
S'0x803C'
p424
sS'variant'
p425
S'leonardo'
p426
sS'mcu'
p427
S'atmega32u4'
p428
ssS'name'
p429
S'Arduino Esplora'
p430
saa(lp431
S'micro'
p432
a(dp433
S'bootloader'
p434
(dp435
S'extended_fuses'
p436
S'0xcb'
p437
sS'high_fuses'
p438
S'0xd8'
p439
sS'low_fuses'
p440
S'0xff'
p441
sS'lock_bits'
p442
S'0x2F'
p443
sS'file'
p444
S'Caterina-Micro.hex'
p445
sS'path'
p446
S'caterina'
p447
sS'unlock_bits'
p448
S'0x3F'
p449
ssS'upload'
p450
(dp451
S'protocol'
p452
S'avr109'
p453
sS'maximum_size'
p454
S'28672'
p455
sS'speed'
p456
S'57600'
p457
sS'disable_flushing'
p458
S'true'
p459
ssS'build'
p460
(dp461
S'core'
p462
S'arduino'
p463
sS'f_cpu'
p464
S'16000000L'
p465
sS'vid'
p466
S'0x2341'
p467
sS'pid'
p468
S'0x8037'
p469
sS'variant'
p470
S'micro'
p471
sS'mcu'
p472
S'atmega32u4'
p473
ssS'name'
p474
S'Arduino Micro'
p475
saa(lp476
S'mini328'
p477
a(dp478
S'bootloader'
p479
(dp480
S'extended_fuses'
p481
S'0x05'
p482
sS'high_fuses'
p483
S'0xd8'
p484
sS'low_fuses'
p485
S'0xff'
p486
sS'lock_bits'
p487
S'0x0F'
p488
sS'file'
p489
S'optiboot_atmega328-Mini.hex'
p490
sS'path'
p491
S'optiboot'
p492
sS'unlock_bits'
p493
S'0x3F'
p494
ssS'upload'
p495
(dp496
S'protocol'
p497
S'arduino'
p498
sS'maximum_size'
p499
S'28672'
p500
sS'speed'
p501
S'115200'
p502
ssS'build'
p503
(dp504
S'core'
p505
S'arduino'
p506
sS'mcu'
p507
S'atmega328p'
p508
sS'f_cpu'
p509
S'16000000L'
p510
sS'variant'
p511
S'eightanaloginputs'
p512
ssS'name'
p513
S'Arduino Mini w/ ATmega328'
p514
saa(lp515
S'mini'
p516
a(dp517
S'bootloader'
p518
(dp519
S'extended_fuses'
p520
S'0x00'
p521
sS'high_fuses'
p522
S'0xdd'
p523
sS'low_fuses'
p524
S'0xff'
p525
sS'lock_bits'
p526
S'0x0F'
p527
sS'file'
p528
S'ATmegaBOOT_168_ng.hex'
p529
sS'path'
p530
S'atmega'
p531
sS'unlock_bits'
p532
S'0x3F'
p533
ssS'upload'
p534
(dp535
S'protocol'
p536
S'arduino'
p537
sS'maximum_size'
p538
S'14336'
p539
sS'speed'
p540
S'19200'
p541
ssS'build'
p542
(dp543
S'core'
p544
S'arduino'
p545
sS'mcu'
p546
S'atmega168'
p547
sS'f_cpu'
p548
S'16000000L'
p549
sS'variant'
p550
S'eightanaloginputs'
p551
ssS'name'
p552
S'Arduino Mini w/ ATmega168'
p553
saa(lp554
S'ethernet'
p555
a(dp556
S'bootloader'
p557
(dp558
S'extended_fuses'
p559
S'0x05'
p560
sS'high_fuses'
p561
S'0xde'
p562
sS'low_fuses'
p563
S'0xff'
p564
sS'lock_bits'
p565
S'0x0F'
p566
sS'file'
p567
S'optiboot_atmega328.hex'
p568
sS'path'
p569
S'optiboot'
p570
sS'unlock_bits'
p571
S'0x3F'
p572
ssS'upload'
p573
(dp574
S'protocol'
p575
S'arduino'
p576
sS'maximum_size'
p577
S'32256'
p578
sS'speed'
p579
S'115200'
p580
ssS'build'
p581
(dp582
S'variant'
p583
S'standard'
p584
sS'mcu'
p585
S'atmega328p'
p586
sS'f_cpu'
p587
S'16000000L'
p588
sS'core'
p589
S'arduino'
p590
ssS'name'
p591
S'Arduino Ethernet'
p592
saa(lp593
S'fio'
p594
a(dp595
S'bootloader'
p596
(dp597
S'extended_fuses'
p598
S'0x05'
p599
sS'high_fuses'
p600
S'0xDA'
p601
sS'low_fuses'
p602
S'0xFF'
p603
sS'lock_bits'
p604
S'0x0F'
p605
sS'file'
p606
S'ATmegaBOOT_168_atmega328_pro_8MHz.hex'
p607
sS'path'
p608
S'arduino:atmega'
p609
sS'unlock_bits'
p610
S'0x3F'
p611
ssS'upload'
p612
(dp613
S'protocol'
p614
S'arduino'
p615
sS'maximum_size'
p616
S'30720'
p617
sS'speed'
p618
S'57600'
p619
ssS'build'
p620
(dp621
S'core'
p622
S'arduino'
p623
sS'mcu'
p624
S'atmega328p'
p625
sS'f_cpu'
p626
S'8000000L'
p627
sS'variant'
p628
S'eightanaloginputs'
p629
ssS'name'
p630
S'Arduino Fio'
p631
saa(lp632
S'bt328'
p633
a(dp634
S'bootloader'
p635
(dp636
S'extended_fuses'
p637
S'0x05'
p638
sS'high_fuses'
p639
S'0xd8'
p640
sS'low_fuses'
p641
S'0xff'
p642
sS'lock_bits'
p643
S'0x0F'
p644
sS'file'
p645
S'ATmegaBOOT_168_atmega328_bt.hex'
p646
sS'path'
p647
S'bt'
p648
sS'unlock_bits'
p649
S'0x3F'
p650
ssS'upload'
p651
(dp652
S'protocol'
p653
S'arduino'
p654
sS'maximum_size'
p655
S'28672'
p656
sS'speed'
p657
S'19200'
p658
sS'disable_flushing'
p659
S'true'
p660
ssS'build'
p661
(dp662
S'core'
p663
S'arduino'
p664
sS'mcu'
p665
S'atmega328p'
p666
sS'f_cpu'
p667
S'16000000L'
p668
sS'variant'
p669
S'eightanaloginputs'
p670
ssS'name'
p671
S'Arduino BT w/ ATmega328'
p672
saa(lp673
S'bt'
p674
a(dp675
S'bootloader'
p676
(dp677
S'extended_fuses'
p678
S'0x00'
p679
sS'high_fuses'
p680
S'0xdd'
p681
sS'low_fuses'
p682
S'0xff'
p683
sS'lock_bits'
p684
S'0x0F'
p685
sS'file'
p686
S'ATmegaBOOT_168.hex'
p687
sS'path'
p688
S'bt'
p689
sS'unlock_bits'
p690
S'0x3F'
p691
ssS'upload'
p692
(dp693
S'protocol'
p694
S'arduino'
p695
sS'maximum_size'
p696
S'14336'
p697
sS'speed'
p698
S'19200'
p699
sS'disable_flushing'
p700
S'true'
p701
ssS'build'
p702
(dp703
S'core'
p704
S'arduino'
p705
sS'mcu'
p706
S'atmega168'
p707
sS'f_cpu'
p708
S'16000000L'
p709
sS'variant'
p710
S'eightanaloginputs'
p711
ssS'name'
p712
S'Arduino BT w/ ATmega168'
p713
saa(lp714
S'LilyPadUSB'
p715
a(dp716
S'bootloader'
p717
(dp718
S'extended_fuses'
p719
S'0xce'
p720
sS'high_fuses'
p721
S'0xd8'
p722
sS'low_fuses'
p723
S'0xff'
p724
sS'lock_bits'
p725
S'0x2F'
p726
sS'file'
p727
S'Caterina-LilyPadUSB.hex'
p728
sS'path'
p729
S'caterina-LilyPadUSB'
p730
sS'unlock_bits'
p731
S'0x3F'
p732
ssS'upload'
p733
(dp734
S'protocol'
p735
S'avr109'
p736
sS'maximum_size'
p737
S'28672'
p738
sS'speed'
p739
S'57600'
p740
sS'disable_flushing'
p741
S'true'
p742
ssS'build'
p743
(dp744
S'core'
p745
S'arduino'
p746
sS'f_cpu'
p747
S'8000000L'
p748
sS'vid'
p749
S'0x1B4F'
p750
sS'pid'
p751
S'0x9208'
p752
sS'variant'
p753
S'leonardo'
p754
sS'mcu'
p755
S'atmega32u4'
p756
ssS'name'
p757
S'LilyPad Arduino USB'
p758
saa(lp759
S'lilypad328'
p760
a(dp761
S'bootloader'
p762
(dp763
S'extended_fuses'
p764
S'0x05'
p765
sS'high_fuses'
p766
S'0xDA'
p767
sS'low_fuses'
p768
S'0xFF'
p769
sS'lock_bits'
p770
S'0x0F'
p771
sS'file'
p772
S'ATmegaBOOT_168_atmega328_pro_8MHz.hex'
p773
sS'path'
p774
S'atmega'
p775
sS'unlock_bits'
p776
S'0x3F'
p777
ssS'upload'
p778
(dp779
S'protocol'
p780
S'arduino'
p781
sS'maximum_size'
p782
S'30720'
p783
sS'speed'
p784
S'57600'
p785
ssS'build'
p786
(dp787
S'core'
p788
S'arduino'
p789
sS'mcu'
p790
S'atmega328p'
p791
sS'f_cpu'
p792
S'8000000L'
p793
sS'variant'
p794
S'standard'
p795
ssS'name'
p796
S'LilyPad Arduino w/ ATmega328'
p797
saa(lp798
S'lilypad'
p799
a(dp800
S'bootloader'
p801
(dp802
S'extended_fuses'
p803
S'0x00'
p804
sS'high_fuses'
p805
S'0xdd'
p806
sS'low_fuses'
p807
S'0xe2'
p808
sS'lock_bits'
p809
S'0x0F'
p810
sS'file'
p811
S'LilyPadBOOT_168.hex'
p812
sS'path'
p813
S'lilypad'
p814
sS'unlock_bits'
p815
S'0x3F'
p816
ssS'upload'
p817
(dp818
S'protocol'
p819
S'arduino'
p820
sS'maximum_size'
p821
S'14336'
p822
sS'speed'
p823
S'19200'
p824
ssS'build'
p825
(dp826
S'core'
p827
S'arduino'
p828
sS'mcu'
p829
S'atmega168'
p830
sS'f_cpu'
p831
S'8000000L'
p832
sS'variant'
p833
S'standard'
p834
ssS'name'
p835
S'LilyPad Arduino w/ ATmega168'
p836
saa(lp837
S'pro5v328'
p838
a(dp839
S'bootloader'
p840
(dp841
S'extended_fuses'
p842
S'0x05'
p843
sS'high_fuses'
p844
S'0xDA'
p845
sS'low_fuses'
p846
S'0xFF'
p847
sS'lock_bits'
p848
S'0x0F'
p849
sS'file'
p850
S'ATmegaBOOT_168_atmega328.hex'
p851
sS'path'
p852
S'atmega'
p853
sS'unlock_bits'
p854
S'0x3F'
p855
ssS'upload'
p856
(dp857
S'protocol'
p858
S'arduino'
p859
sS'maximum_size'
p860
S'30720'
p861
sS'speed'
p862
S'57600'
p863
ssS'build'
p864
(dp865
S'core'
p866
S'arduino'
p867
sS'mcu'
p868
S'atmega328p'
p869
sS'f_cpu'
p870
S'16000000L'
p871
sS'variant'
p872
S'standard'
p873
ssS'name'
p874
S'Arduino Pro or Pro Mini (5V, 16 MHz) w/ ATmega328'
p875
saa(lp876
S'pro5v'
p877
a(dp878
S'bootloader'
p879
(dp880
S'extended_fuses'
p881
S'0x00'
p882
sS'high_fuses'
p883
S'0xdd'
p884
sS'low_fuses'
p885
S'0xff'
p886
sS'lock_bits'
p887
S'0x0F'
p888
sS'file'
p889
S'ATmegaBOOT_168_diecimila.hex'
p890
sS'path'
p891
S'atmega'
p892
sS'unlock_bits'
p893
S'0x3F'
p894
ssS'upload'
p895
(dp896
S'protocol'
p897
S'arduino'
p898
sS'maximum_size'
p899
S'14336'
p900
sS'speed'
p901
S'19200'
p902
ssS'build'
p903
(dp904
S'core'
p905
S'arduino'
p906
sS'mcu'
p907
S'atmega168'
p908
sS'f_cpu'
p909
S'16000000L'
p910
sS'variant'
p911
S'standard'
p912
ssS'name'
p913
S'Arduino Pro or Pro Mini (5V, 16 MHz) w/ ATmega168'
p914
saa(lp915
S'pro328'
p916
a(dp917
S'bootloader'
p918
(dp919
S'extended_fuses'
p920
S'0x05'
p921
sS'high_fuses'
p922
S'0xDA'
p923
sS'low_fuses'
p924
S'0xFF'
p925
sS'lock_bits'
p926
S'0x0F'
p927
sS'file'
p928
S'ATmegaBOOT_168_atmega328_pro_8MHz.hex'
p929
sS'path'
p930
S'atmega'
p931
sS'unlock_bits'
p932
S'0x3F'
p933
ssS'upload'
p934
(dp935
S'protocol'
p936
S'arduino'
p937
sS'maximum_size'
p938
S'30720'
p939
sS'speed'
p940
S'57600'
p941
ssS'build'
p942
(dp943
S'core'
p944
S'arduino'
p945
sS'mcu'
p946
S'atmega328p'
p947
sS'f_cpu'
p948
S'8000000L'
p949
sS'variant'
p950
S'standard'
p951
ssS'name'
p952
S'Arduino Pro or Pro Mini (3.3V, 8 MHz) w/ ATmega328'
p953
saa(lp954
S'pro'
p955
a(dp956
S'bootloader'
p957
(dp958
S'extended_fuses'
p959
S'0x00'
p960
sS'high_fuses'
p961
S'0xdd'
p962
sS'low_fuses'
p963
S'0xc6'
p964
sS'lock_bits'
p965
S'0x0F'
p966
sS'file'
p967
S'ATmegaBOOT_168_pro_8MHz.hex'
p968
sS'path'
p969
S'atmega'
p970
sS'unlock_bits'
p971
S'0x3F'
p972
ssS'upload'
p973
(dp974
S'protocol'
p975
S'arduino'
p976
sS'maximum_size'
p977
S'14336'
p978
sS'speed'
p979
S'19200'
p980
ssS'build'
p981
(dp982
S'core'
p983
S'arduino'
p984
sS'mcu'
p985
S'atmega168'
p986
sS'f_cpu'
p987
S'8000000L'
p988
sS'variant'
p989
S'standard'
p990
ssS'name'
p991
S'Arduino Pro or Pro Mini (3.3V, 8 MHz) w/ ATmega168'
p992
saa(lp993
S'atmega168'
p994
a(dp995
S'bootloader'
p996
(dp997
S'extended_fuses'
p998
S'0x00'
p999
sS'high_fuses'
p1000
S'0xdd'
p1001
sS'low_fuses'
p1002
S'0xff'
p1003
sS'lock_bits'
p1004
S'0x0F'
p1005
sS'file'
p1006
S'ATmegaBOOT_168_ng.hex'
p1007
sS'path'
p1008
S'atmega'
p1009
sS'unlock_bits'
p1010
S'0x3F'
p1011
ssS'upload'
p1012
(dp1013
S'protocol'
p1014
S'arduino'
p1015
sS'maximum_size'
p1016
S'14336'
p1017
sS'speed'
p1018
S'19200'
p1019
ssS'build'
p1020
(dp1021
S'core'
p1022
S'arduino'
p1023
sS'mcu'
p1024
S'atmega168'
p1025
sS'f_cpu'
p1026
S'16000000L'
p1027
sS'variant'
p1028
S'standard'
p1029
ssS'name'
p1030
S'Arduino NG or older w/ ATmega168'
p1031
saa(lp1032
S'atmega8'
p1033
a(dp1034
S'bootloader'
p1035
(dp1036
S'high_fuses'
p1037
S'0xca'
p1038
sS'low_fuses'
p1039
S'0xdf'
p1040
sS'lock_bits'
p1041
S'0x0F'
p1042
sS'file'
p1043
S'ATmegaBOOT-prod-firmware-2009-11-07.hex'
p1044
sS'path'
p1045
S'atmega8'
p1046
sS'unlock_bits'
p1047
S'0x3F'
p1048
ssS'upload'
p1049
(dp1050
S'protocol'
p1051
S'arduino'
p1052
sS'maximum_size'
p1053
S'7168'
p1054
sS'speed'
p1055
S'19200'
p1056
ssS'build'
p1057
(dp1058
S'core'
p1059
S'arduino'
p1060
sS'mcu'
p1061
S'atmega8'
p1062
sS'f_cpu'
p1063
S'16000000L'
p1064
sS'variant'
p1065
S'standard'
p1066
ssS'name'
p1067
S'Arduino NG or older w/ ATmega8'
p1068
saa(lp1069
S'robotControl'
p1070
a(dp1071
S'bootloader'
p1072
(dp1073
S'extended_fuses'
p1074
S'0xcb'
p1075
sS'high_fuses'
p1076
S'0xd8'
p1077
sS'low_fuses'
p1078
S'0xff'
p1079
sS'lock_bits'
p1080
S'0x2F'
p1081
sS'file'
p1082
S'Caterina-Robot-Control.hex'
p1083
sS'path'
p1084
S'caterina-Arduino_Robot'
p1085
sS'unlock_bits'
p1086
S'0x3F'
p1087
ssS'upload'
p1088
(dp1089
S'protocol'
p1090
S'avr109'
p1091
sS'maximum_size'
p1092
S'28672'
p1093
sS'speed'
p1094
S'57600'
p1095
sS'disable_flushing'
p1096
S'true'
p1097
ssS'build'
p1098
(dp1099
S'core'
p1100
S'robot'
p1101
sS'f_cpu'
p1102
S'16000000L'
p1103
sS'vid'
p1104
S'0x2341'
p1105
sS'pid'
p1106
S'0x8038'
p1107
sS'variant'
p1108
S'robot_control'
p1109
sS'mcu'
p1110
S'atmega32u4'
p1111
ssS'name'
p1112
S'Arduino Robot Control'
p1113
saa(lp1114
S'robotMotor'
p1115
a(dp1116
S'bootloader'
p1117
(dp1118
S'extended_fuses'
p1119
S'0xcb'
p1120
sS'high_fuses'
p1121
S'0xd8'
p1122
sS'low_fuses'
p1123
S'0xff'
p1124
sS'lock_bits'
p1125
S'0x2F'
p1126
sS'file'
p1127
S'Caterina-Robot-Motor.hex'
p1128
sS'path'
p1129
S'caterina-Arduino_Robot'
p1130
sS'unlock_bits'
p1131
S'0x3F'
p1132
ssS'upload'
p1133
(dp1134
S'protocol'
p1135
S'avr109'
p1136
sS'maximum_size'
p1137
S'28672'
p1138
sS'speed'
p1139
S'57600'
p1140
sS'disable_flushing'
p1141
S'true'
p1142
ssS'build'
p1143
(dp1144
S'core'
p1145
S'robot'
p1146
sS'f_cpu'
p1147
S'16000000L'
p1148
sS'vid'
p1149
S'0x2341'
p1150
sS'pid'
p1151
S'0x8039'
p1152
sS'variant'
p1153
S'robot_motor'
p1154
sS'mcu'
p1155
S'atmega32u4'
p1156
ssS'name'
p1157
S'Arduino Robot Motor'
p1158
saatp1159
Rp1160
(dp1161
S'default'
p1162
S'uno'
p1163
sbtp1164
a(S'used_libs'
p1165
(lp1166
S'/Applications/Arduino.app/Contents/Resources/Java/libraries/EEPROM'
p1167
aS'lib/LiquidCrystal'
p1168
aS'lib/Wire'
p1169
aS'/Applications/Arduino.app/Contents/Resources/Java/hardware/arduino/cores/arduino'
p1170
atp1171
a(S'make'
p1172
S'/Applications/Arduino.app/Contents/Resources/Java/hardware/tools/avr/bin/make'
p1173
tp1174
a(S'arduino_libraries_dir'
p1175
S'/Applications/Arduino.app/Contents/Resources/Java/libraries'
p1176
tp1177
a(S'cxx'
p1178
S'/Applications/Arduino.app/Contents/Resources/Java/hardware/tools/avr/bin/avr-g++'
p1179
tp1180
a(S'cflags'
p1181
g2
(g3
g4
(lp1182
tp1183
Rp1184
tp1185
a(S'cxxflags'
p1186
g2
(g3
g4
(lp1187
S'-fno-exceptions'
p1188
atp1189
Rp1190
tp1191
a(S'arduino_variants_dir'
p1192
S'/Applications/Arduino.app/Contents/Resources/Java/hardware/arduino/variants'
p1193
tp1194
a(S'stty'
p1195
S'/bin/stty'
p1196
tp1197
a(S'version.txt'
p1198
S'/Applications/Arduino.app/Contents/Resources/Java/lib/version.txt'
p1199
tp1200
a(S'arduino_core_dir'
p1201
g1170
tp1202
a(S'boards.txt'
p1203
S'/Applications/Arduino.app/Contents/Resources/Java/hardware/arduino/boards.txt'
p1204
tp1205
a(S'avrdude.conf'
p1206
S'/Applications/Arduino.app/Contents/Resources/Java/hardware/tools/avr/etc/avrdude.conf'
p1207
tp1208
a(S'deps'
p1209
g2
(g3
g4
(lp1210
S'.build/uno/src/dependencies.d'
p1211
aS'.build/uno/arduino/dependencies.d'
p1212
aS'.build/uno/EEPROM/dependencies.d'
p1213
aS'.build/uno/LiquidCrystal/dependencies.d'
p1214
aS'.build/uno/Wire/dependencies.d'
p1215
atp1216
Rp1217
tp1218
a.