(lp0
(S'cppflags'
p1
ccopy_reg
_reconstructor
p2
(cino.utils
SpaceList
p3
c__builtin__
list
p4
(lp5
S'-mmcu=atmega328p'
p6
aS'-DF_CPU=16000000L'
p7
aS'-DARDUINO=105'
p8
aS'-I/Applications/Arduino.app/Contents/Resources/Java/hardware/arduino/cores/arduino'
p9
aS'-ffunction-sections'
p10
aS'-fdata-sections'
p11
aS'-g'
p12
aS'-Os'
p13
aS'-w'
p14
aS'-I/Applications/Arduino.app/Contents/Resources/Java/hardware/arduino/variants/standard'
p15
aS'-I/Applications/Arduino.app/Contents/Resources/Java/libraries/EEPROM'
p16
aS'-Ilib/LiquidCrystal'
p17
aS'-Ilib/Wire'
p18
aS'-Ilib/Wire/utility'
p19
aS'-I/Applications/Arduino.app/Contents/Resources/Java/hardware/arduino/cores/arduino'
p20
aS'-I/Applications/Arduino.app/Contents/Resources/Java/hardware/arduino/cores/arduino/avr-libc'
p21
atp22
Rp23
tp24
a(S'cc'
p25
S'/Applications/Arduino.app/Contents/Resources/Java/hardware/tools/avr/bin/avr-gcc'
p26
tp27
a(S'arduino_libraries_dir'
p28
S'/Applications/Arduino.app/Contents/Resources/Java/libraries'
p29
tp30
a(S'avrdude'
p31
S'/Applications/Arduino.app/Contents/Resources/Java/hardware/tools/avr/bin/avrdude'
p32
tp33
a(S'ar'
p34
S'/Applications/Arduino.app/Contents/Resources/Java/hardware/tools/avr/bin/avr-ar'
p35
tp36
a(S'names'
p37
(dp38
S'cpp'
p39
S'%s.cpp'
p40
sS'obj'
p41
S'%s.o'
p42
sS'lib'
p43
S'lib%s.a'
p44
sS'deps'
p45
S'%s.d'
p46
stp47
a(S'ldflags'
p48
g2
(g3
g4
(lp49
g6
aS'-Wl,-Os'
p50
aS'-Wl,--gc-sections'
p51
atp52
Rp53
tp54
a(S'arduino_lib_version'
p55
g2
(cino.environment
Version
p56
c__builtin__
tuple
p57
(I1
I0
I5
tp58
tp59
Rp60
tp61
a(S'objcopy'
p62
S'/Applications/Arduino.app/Contents/Resources/Java/hardware/tools/avr/bin/avr-objcopy'
p63
tp64
a(S'board_models'
p65
cino.environment
BoardModels
p66
((lp67
(lp68
S'uno'
p69
a(dp70
S'bootloader'
p71
(dp72
S'extended_fuses'
p73
S'0x05'
p74
sS'high_fuses'
p75
S'0xde'
p76
sS'low_fuses'
p77
S'0xff'
p78
sS'lock_bits'
p79
S'0x0F'
p80
sS'file'
p81
S'optiboot_atmega328.hex'
p82
sS'path'
p83
S'optiboot'
p84
sS'unlock_bits'
p85
S'0x3F'
p86
ssS'build'
p87
(dp88
S'core'
p89
S'arduino'
p90
sS'mcu'
p91
S'atmega328p'
p92
sS'f_cpu'
p93
S'16000000L'
p94
sS'variant'
p95
S'standard'
p96
ssS'name'
p97
S'Arduino Uno'
p98
sS'upload'
p99
(dp100
S'speed'
p101
S'115200'
p102
sS'maximum_size'
p103
S'32256'
p104
sS'protocol'
p105
S'arduino'
p106
ssaa(lp107
S'atmega328'
p108
a(dp109
S'bootloader'
p110
(dp111
S'extended_fuses'
p112
S'0x05'
p113
sS'high_fuses'
p114
S'0xDA'
p115
sS'low_fuses'
p116
S'0xFF'
p117
sS'lock_bits'
p118
S'0x0F'
p119
sS'file'
p120
S'ATmegaBOOT_168_atmega328.hex'
p121
sS'path'
p122
S'atmega'
p123
sS'unlock_bits'
p124
S'0x3F'
p125
ssS'build'
p126
(dp127
S'core'
p128
S'arduino'
p129
sS'mcu'
p130
S'atmega328p'
p131
sS'f_cpu'
p132
S'16000000L'
p133
sS'variant'
p134
S'standard'
p135
ssS'name'
p136
S'Arduino Duemilanove w/ ATmega328'
p137
sS'upload'
p138
(dp139
S'speed'
p140
S'57600'
p141
sS'maximum_size'
p142
S'30720'
p143
sS'protocol'
p144
S'arduino'
p145
ssaa(lp146
S'diecimila'
p147
a(dp148
S'bootloader'
p149
(dp150
S'extended_fuses'
p151
S'0x00'
p152
sS'high_fuses'
p153
S'0xdd'
p154
sS'low_fuses'
p155
S'0xff'
p156
sS'lock_bits'
p157
S'0x0F'
p158
sS'file'
p159
S'ATmegaBOOT_168_diecimila.hex'
p160
sS'path'
p161
S'atmega'
p162
sS'unlock_bits'
p163
S'0x3F'
p164
ssS'build'
p165
(dp166
S'core'
p167
S'arduino'
p168
sS'mcu'
p169
S'atmega168'
p170
sS'f_cpu'
p171
S'16000000L'
p172
sS'variant'
p173
S'standard'
p174
ssS'name'
p175
S'Arduino Diecimila or Duemilanove w/ ATmega168'
p176
sS'upload'
p177
(dp178
S'speed'
p179
S'19200'
p180
sS'maximum_size'
p181
S'14336'
p182
sS'protocol'
p183
S'arduino'
p184
ssaa(lp185
S'nano328'
p186
a(dp187
S'bootloader'
p188
(dp189
S'extended_fuses'
p190
S'0x05'
p191
sS'high_fuses'
p192
S'0xDA'
p193
sS'low_fuses'
p194
S'0xFF'
p195
sS'lock_bits'
p196
S'0x0F'
p197
sS'file'
p198
S'ATmegaBOOT_168_atmega328.hex'
p199
sS'path'
p200
S'atmega'
p201
sS'unlock_bits'
p202
S'0x3F'
p203
ssS'build'
p204
(dp205
S'core'
p206
S'arduino'
p207
sS'mcu'
p208
S'atmega328p'
p209
sS'f_cpu'
p210
S'16000000L'
p211
sS'variant'
p212
S'eightanaloginputs'
p213
ssS'name'
p214
S'Arduino Nano w/ ATmega328'
p215
sS'upload'
p216
(dp217
S'speed'
p218
S'57600'
p219
sS'maximum_size'
p220
S'30720'
p221
sS'protocol'
p222
S'arduino'
p223
ssaa(lp224
S'nano'
p225
a(dp226
S'bootloader'
p227
(dp228
S'extended_fuses'
p229
S'0x00'
p230
sS'high_fuses'
p231
S'0xdd'
p232
sS'low_fuses'
p233
S'0xff'
p234
sS'lock_bits'
p235
S'0x0F'
p236
sS'file'
p237
S'ATmegaBOOT_168_diecimila.hex'
p238
sS'path'
p239
S'atmega'
p240
sS'unlock_bits'
p241
S'0x3F'
p242
ssS'build'
p243
(dp244
S'core'
p245
S'arduino'
p246
sS'mcu'
p247
S'atmega168'
p248
sS'f_cpu'
p249
S'16000000L'
p250
sS'variant'
p251
S'eightanaloginputs'
p252
ssS'name'
p253
S'Arduino Nano w/ ATmega168'
p254
sS'upload'
p255
(dp256
S'speed'
p257
S'19200'
p258
sS'maximum_size'
p259
S'14336'
p260
sS'protocol'
p261
S'arduino'
p262
ssaa(lp263
S'mega2560'
p264
a(dp265
S'bootloader'
p266
(dp267
S'extended_fuses'
p268
S'0xFD'
p269
sS'high_fuses'
p270
S'0xD8'
p271
sS'low_fuses'
p272
S'0xFF'
p273
sS'lock_bits'
p274
S'0x0F'
p275
sS'file'
p276
S'stk500boot_v2_mega2560.hex'
p277
sS'path'
p278
S'stk500v2'
p279
sS'unlock_bits'
p280
S'0x3F'
p281
ssS'build'
p282
(dp283
S'core'
p284
S'arduino'
p285
sS'mcu'
p286
S'atmega2560'
p287
sS'f_cpu'
p288
S'16000000L'
p289
sS'variant'
p290
S'mega'
p291
ssS'name'
p292
S'Arduino Mega 2560 or Mega ADK'
p293
sS'upload'
p294
(dp295
S'speed'
p296
S'115200'
p297
sS'maximum_size'
p298
S'258048'
p299
sS'protocol'
p300
S'wiring'
p301
ssaa(lp302
S'mega'
p303
a(dp304
S'bootloader'
p305
(dp306
S'extended_fuses'
p307
S'0xF5'
p308
sS'high_fuses'
p309
S'0xDA'
p310
sS'low_fuses'
p311
S'0xFF'
p312
sS'lock_bits'
p313
S'0x0F'
p314
sS'file'
p315
S'ATmegaBOOT_168_atmega1280.hex'
p316
sS'path'
p317
S'atmega'
p318
sS'unlock_bits'
p319
S'0x3F'
p320
ssS'build'
p321
(dp322
S'core'
p323
S'arduino'
p324
sS'mcu'
p325
S'atmega1280'
p326
sS'f_cpu'
p327
S'16000000L'
p328
sS'variant'
p329
S'mega'
p330
ssS'name'
p331
S'Arduino Mega (ATmega1280)'
p332
sS'upload'
p333
(dp334
S'speed'
p335
S'57600'
p336
sS'maximum_size'
p337
S'126976'
p338
sS'protocol'
p339
S'arduino'
p340
ssaa(lp341
S'leonardo'
p342
a(dp343
S'bootloader'
p344
(dp345
S'extended_fuses'
p346
S'0xcb'
p347
sS'high_fuses'
p348
S'0xd8'
p349
sS'low_fuses'
p350
S'0xff'
p351
sS'lock_bits'
p352
S'0x2F'
p353
sS'file'
p354
S'Caterina-Leonardo.hex'
p355
sS'path'
p356
S'caterina'
p357
sS'unlock_bits'
p358
S'0x3F'
p359
ssS'build'
p360
(dp361
S'core'
p362
S'arduino'
p363
sS'f_cpu'
p364
S'16000000L'
p365
sS'vid'
p366
S'0x2341'
p367
sS'pid'
p368
S'0x8036'
p369
sS'variant'
p370
S'leonardo'
p371
sS'mcu'
p372
S'atmega32u4'
p373
ssS'name'
p374
S'Arduino Leonardo'
p375
sS'upload'
p376
(dp377
S'speed'
p378
S'57600'
p379
sS'maximum_size'
p380
S'28672'
p381
sS'protocol'
p382
S'avr109'
p383
sS'disable_flushing'
p384
S'true'
p385
ssaa(lp386
S'esplora'
p387
a(dp388
S'bootloader'
p389
(dp390
S'extended_fuses'
p391
S'0xcb'
p392
sS'high_fuses'
p393
S'0xd8'
p394
sS'low_fuses'
p395
S'0xff'
p396
sS'lock_bits'
p397
S'0x2F'
p398
sS'file'
p399
S'Caterina-Esplora.hex'
p400
sS'path'
p401
S'caterina'
p402
sS'unlock_bits'
p403
S'0x3F'
p404
ssS'build'
p405
(dp406
S'core'
p407
S'arduino'
p408
sS'f_cpu'
p409
S'16000000L'
p410
sS'vid'
p411
S'0x2341'
p412
sS'pid'
p413
S'0x803C'
p414
sS'variant'
p415
S'leonardo'
p416
sS'mcu'
p417
S'atmega32u4'
p418
ssS'name'
p419
S'Arduino Esplora'
p420
sS'upload'
p421
(dp422
S'speed'
p423
S'57600'
p424
sS'maximum_size'
p425
S'28672'
p426
sS'protocol'
p427
S'avr109'
p428
sS'disable_flushing'
p429
S'true'
p430
ssaa(lp431
S'micro'
p432
a(dp433
S'bootloader'
p434
(dp435
S'extended_fuses'
p436
S'0xcb'
p437
sS'high_fuses'
p438
S'0xd8'
p439
sS'low_fuses'
p440
S'0xff'
p441
sS'lock_bits'
p442
S'0x2F'
p443
sS'file'
p444
S'Caterina-Micro.hex'
p445
sS'path'
p446
S'caterina'
p447
sS'unlock_bits'
p448
S'0x3F'
p449
ssS'build'
p450
(dp451
S'core'
p452
S'arduino'
p453
sS'f_cpu'
p454
S'16000000L'
p455
sS'vid'
p456
S'0x2341'
p457
sS'pid'
p458
S'0x8037'
p459
sS'variant'
p460
S'micro'
p461
sS'mcu'
p462
S'atmega32u4'
p463
ssS'name'
p464
S'Arduino Micro'
p465
sS'upload'
p466
(dp467
S'speed'
p468
S'57600'
p469
sS'maximum_size'
p470
S'28672'
p471
sS'protocol'
p472
S'avr109'
p473
sS'disable_flushing'
p474
S'true'
p475
ssaa(lp476
S'mini328'
p477
a(dp478
S'bootloader'
p479
(dp480
S'extended_fuses'
p481
S'0x05'
p482
sS'high_fuses'
p483
S'0xd8'
p484
sS'low_fuses'
p485
S'0xff'
p486
sS'lock_bits'
p487
S'0x0F'
p488
sS'file'
p489
S'optiboot_atmega328-Mini.hex'
p490
sS'path'
p491
S'optiboot'
p492
sS'unlock_bits'
p493
S'0x3F'
p494
ssS'build'
p495
(dp496
S'core'
p497
S'arduino'
p498
sS'mcu'
p499
S'atmega328p'
p500
sS'f_cpu'
p501
S'16000000L'
p502
sS'variant'
p503
S'eightanaloginputs'
p504
ssS'name'
p505
S'Arduino Mini w/ ATmega328'
p506
sS'upload'
p507
(dp508
S'speed'
p509
S'115200'
p510
sS'maximum_size'
p511
S'28672'
p512
sS'protocol'
p513
S'arduino'
p514
ssaa(lp515
S'mini'
p516
a(dp517
S'bootloader'
p518
(dp519
S'extended_fuses'
p520
S'0x00'
p521
sS'high_fuses'
p522
S'0xdd'
p523
sS'low_fuses'
p524
S'0xff'
p525
sS'lock_bits'
p526
S'0x0F'
p527
sS'file'
p528
S'ATmegaBOOT_168_ng.hex'
p529
sS'path'
p530
S'atmega'
p531
sS'unlock_bits'
p532
S'0x3F'
p533
ssS'build'
p534
(dp535
S'core'
p536
S'arduino'
p537
sS'mcu'
p538
S'atmega168'
p539
sS'f_cpu'
p540
S'16000000L'
p541
sS'variant'
p542
S'eightanaloginputs'
p543
ssS'name'
p544
S'Arduino Mini w/ ATmega168'
p545
sS'upload'
p546
(dp547
S'speed'
p548
S'19200'
p549
sS'maximum_size'
p550
S'14336'
p551
sS'protocol'
p552
S'arduino'
p553
ssaa(lp554
S'ethernet'
p555
a(dp556
S'bootloader'
p557
(dp558
S'extended_fuses'
p559
S'0x05'
p560
sS'high_fuses'
p561
S'0xde'
p562
sS'low_fuses'
p563
S'0xff'
p564
sS'lock_bits'
p565
S'0x0F'
p566
sS'file'
p567
S'optiboot_atmega328.hex'
p568
sS'path'
p569
S'optiboot'
p570
sS'unlock_bits'
p571
S'0x3F'
p572
ssS'build'
p573
(dp574
S'f_cpu'
p575
S'16000000L'
p576
sS'mcu'
p577
S'atmega328p'
p578
sS'variant'
p579
S'standard'
p580
sS'core'
p581
S'arduino'
p582
ssS'name'
p583
S'Arduino Ethernet'
p584
sS'upload'
p585
(dp586
S'speed'
p587
S'115200'
p588
sS'maximum_size'
p589
S'32256'
p590
sS'protocol'
p591
S'arduino'
p592
ssaa(lp593
S'fio'
p594
a(dp595
S'bootloader'
p596
(dp597
S'extended_fuses'
p598
S'0x05'
p599
sS'high_fuses'
p600
S'0xDA'
p601
sS'low_fuses'
p602
S'0xFF'
p603
sS'lock_bits'
p604
S'0x0F'
p605
sS'file'
p606
S'ATmegaBOOT_168_atmega328_pro_8MHz.hex'
p607
sS'path'
p608
S'arduino:atmega'
p609
sS'unlock_bits'
p610
S'0x3F'
p611
ssS'build'
p612
(dp613
S'core'
p614
S'arduino'
p615
sS'mcu'
p616
S'atmega328p'
p617
sS'f_cpu'
p618
S'8000000L'
p619
sS'variant'
p620
S'eightanaloginputs'
p621
ssS'name'
p622
S'Arduino Fio'
p623
sS'upload'
p624
(dp625
S'speed'
p626
S'57600'
p627
sS'maximum_size'
p628
S'30720'
p629
sS'protocol'
p630
S'arduino'
p631
ssaa(lp632
S'bt328'
p633
a(dp634
S'bootloader'
p635
(dp636
S'extended_fuses'
p637
S'0x05'
p638
sS'high_fuses'
p639
S'0xd8'
p640
sS'low_fuses'
p641
S'0xff'
p642
sS'lock_bits'
p643
S'0x0F'
p644
sS'file'
p645
S'ATmegaBOOT_168_atmega328_bt.hex'
p646
sS'path'
p647
S'bt'
p648
sS'unlock_bits'
p649
S'0x3F'
p650
ssS'build'
p651
(dp652
S'core'
p653
S'arduino'
p654
sS'mcu'
p655
S'atmega328p'
p656
sS'f_cpu'
p657
S'16000000L'
p658
sS'variant'
p659
S'eightanaloginputs'
p660
ssS'name'
p661
S'Arduino BT w/ ATmega328'
p662
sS'upload'
p663
(dp664
S'speed'
p665
S'19200'
p666
sS'maximum_size'
p667
S'28672'
p668
sS'protocol'
p669
S'arduino'
p670
sS'disable_flushing'
p671
S'true'
p672
ssaa(lp673
S'bt'
p674
a(dp675
S'bootloader'
p676
(dp677
S'extended_fuses'
p678
S'0x00'
p679
sS'high_fuses'
p680
S'0xdd'
p681
sS'low_fuses'
p682
S'0xff'
p683
sS'lock_bits'
p684
S'0x0F'
p685
sS'file'
p686
S'ATmegaBOOT_168.hex'
p687
sS'path'
p688
S'bt'
p689
sS'unlock_bits'
p690
S'0x3F'
p691
ssS'build'
p692
(dp693
S'core'
p694
S'arduino'
p695
sS'mcu'
p696
S'atmega168'
p697
sS'f_cpu'
p698
S'16000000L'
p699
sS'variant'
p700
S'eightanaloginputs'
p701
ssS'name'
p702
S'Arduino BT w/ ATmega168'
p703
sS'upload'
p704
(dp705
S'speed'
p706
S'19200'
p707
sS'maximum_size'
p708
S'14336'
p709
sS'protocol'
p710
S'arduino'
p711
sS'disable_flushing'
p712
S'true'
p713
ssaa(lp714
S'LilyPadUSB'
p715
a(dp716
S'bootloader'
p717
(dp718
S'extended_fuses'
p719
S'0xce'
p720
sS'high_fuses'
p721
S'0xd8'
p722
sS'low_fuses'
p723
S'0xff'
p724
sS'lock_bits'
p725
S'0x2F'
p726
sS'file'
p727
S'Caterina-LilyPadUSB.hex'
p728
sS'path'
p729
S'caterina-LilyPadUSB'
p730
sS'unlock_bits'
p731
S'0x3F'
p732
ssS'build'
p733
(dp734
S'core'
p735
S'arduino'
p736
sS'f_cpu'
p737
S'8000000L'
p738
sS'vid'
p739
S'0x1B4F'
p740
sS'pid'
p741
S'0x9208'
p742
sS'variant'
p743
S'leonardo'
p744
sS'mcu'
p745
S'atmega32u4'
p746
ssS'name'
p747
S'LilyPad Arduino USB'
p748
sS'upload'
p749
(dp750
S'speed'
p751
S'57600'
p752
sS'maximum_size'
p753
S'28672'
p754
sS'protocol'
p755
S'avr109'
p756
sS'disable_flushing'
p757
S'true'
p758
ssaa(lp759
S'lilypad328'
p760
a(dp761
S'bootloader'
p762
(dp763
S'extended_fuses'
p764
S'0x05'
p765
sS'high_fuses'
p766
S'0xDA'
p767
sS'low_fuses'
p768
S'0xFF'
p769
sS'lock_bits'
p770
S'0x0F'
p771
sS'file'
p772
S'ATmegaBOOT_168_atmega328_pro_8MHz.hex'
p773
sS'path'
p774
S'atmega'
p775
sS'unlock_bits'
p776
S'0x3F'
p777
ssS'build'
p778
(dp779
S'core'
p780
S'arduino'
p781
sS'mcu'
p782
S'atmega328p'
p783
sS'f_cpu'
p784
S'8000000L'
p785
sS'variant'
p786
S'standard'
p787
ssS'name'
p788
S'LilyPad Arduino w/ ATmega328'
p789
sS'upload'
p790
(dp791
S'speed'
p792
S'57600'
p793
sS'maximum_size'
p794
S'30720'
p795
sS'protocol'
p796
S'arduino'
p797
ssaa(lp798
S'lilypad'
p799
a(dp800
S'bootloader'
p801
(dp802
S'extended_fuses'
p803
S'0x00'
p804
sS'high_fuses'
p805
S'0xdd'
p806
sS'low_fuses'
p807
S'0xe2'
p808
sS'lock_bits'
p809
S'0x0F'
p810
sS'file'
p811
S'LilyPadBOOT_168.hex'
p812
sS'path'
p813
S'lilypad'
p814
sS'unlock_bits'
p815
S'0x3F'
p816
ssS'build'
p817
(dp818
S'core'
p819
S'arduino'
p820
sS'mcu'
p821
S'atmega168'
p822
sS'f_cpu'
p823
S'8000000L'
p824
sS'variant'
p825
S'standard'
p826
ssS'name'
p827
S'LilyPad Arduino w/ ATmega168'
p828
sS'upload'
p829
(dp830
S'speed'
p831
S'19200'
p832
sS'maximum_size'
p833
S'14336'
p834
sS'protocol'
p835
S'arduino'
p836
ssaa(lp837
S'pro5v328'
p838
a(dp839
S'bootloader'
p840
(dp841
S'extended_fuses'
p842
S'0x05'
p843
sS'high_fuses'
p844
S'0xDA'
p845
sS'low_fuses'
p846
S'0xFF'
p847
sS'lock_bits'
p848
S'0x0F'
p849
sS'file'
p850
S'ATmegaBOOT_168_atmega328.hex'
p851
sS'path'
p852
S'atmega'
p853
sS'unlock_bits'
p854
S'0x3F'
p855
ssS'build'
p856
(dp857
S'core'
p858
S'arduino'
p859
sS'mcu'
p860
S'atmega328p'
p861
sS'f_cpu'
p862
S'16000000L'
p863
sS'variant'
p864
S'standard'
p865
ssS'name'
p866
S'Arduino Pro or Pro Mini (5V, 16 MHz) w/ ATmega328'
p867
sS'upload'
p868
(dp869
S'speed'
p870
S'57600'
p871
sS'maximum_size'
p872
S'30720'
p873
sS'protocol'
p874
S'arduino'
p875
ssaa(lp876
S'pro5v'
p877
a(dp878
S'bootloader'
p879
(dp880
S'extended_fuses'
p881
S'0x00'
p882
sS'high_fuses'
p883
S'0xdd'
p884
sS'low_fuses'
p885
S'0xff'
p886
sS'lock_bits'
p887
S'0x0F'
p888
sS'file'
p889
S'ATmegaBOOT_168_diecimila.hex'
p890
sS'path'
p891
S'atmega'
p892
sS'unlock_bits'
p893
S'0x3F'
p894
ssS'build'
p895
(dp896
S'core'
p897
S'arduino'
p898
sS'mcu'
p899
S'atmega168'
p900
sS'f_cpu'
p901
S'16000000L'
p902
sS'variant'
p903
S'standard'
p904
ssS'name'
p905
S'Arduino Pro or Pro Mini (5V, 16 MHz) w/ ATmega168'
p906
sS'upload'
p907
(dp908
S'speed'
p909
S'19200'
p910
sS'maximum_size'
p911
S'14336'
p912
sS'protocol'
p913
S'arduino'
p914
ssaa(lp915
S'pro328'
p916
a(dp917
S'bootloader'
p918
(dp919
S'extended_fuses'
p920
S'0x05'
p921
sS'high_fuses'
p922
S'0xDA'
p923
sS'low_fuses'
p924
S'0xFF'
p925
sS'lock_bits'
p926
S'0x0F'
p927
sS'file'
p928
S'ATmegaBOOT_168_atmega328_pro_8MHz.hex'
p929
sS'path'
p930
S'atmega'
p931
sS'unlock_bits'
p932
S'0x3F'
p933
ssS'build'
p934
(dp935
S'core'
p936
S'arduino'
p937
sS'mcu'
p938
S'atmega328p'
p939
sS'f_cpu'
p940
S'8000000L'
p941
sS'variant'
p942
S'standard'
p943
ssS'name'
p944
S'Arduino Pro or Pro Mini (3.3V, 8 MHz) w/ ATmega328'
p945
sS'upload'
p946
(dp947
S'speed'
p948
S'57600'
p949
sS'maximum_size'
p950
S'30720'
p951
sS'protocol'
p952
S'arduino'
p953
ssaa(lp954
S'pro'
p955
a(dp956
S'bootloader'
p957
(dp958
S'extended_fuses'
p959
S'0x00'
p960
sS'high_fuses'
p961
S'0xdd'
p962
sS'low_fuses'
p963
S'0xc6'
p964
sS'lock_bits'
p965
S'0x0F'
p966
sS'file'
p967
S'ATmegaBOOT_168_pro_8MHz.hex'
p968
sS'path'
p969
S'atmega'
p970
sS'unlock_bits'
p971
S'0x3F'
p972
ssS'build'
p973
(dp974
S'core'
p975
S'arduino'
p976
sS'mcu'
p977
S'atmega168'
p978
sS'f_cpu'
p979
S'8000000L'
p980
sS'variant'
p981
S'standard'
p982
ssS'name'
p983
S'Arduino Pro or Pro Mini (3.3V, 8 MHz) w/ ATmega168'
p984
sS'upload'
p985
(dp986
S'speed'
p987
S'19200'
p988
sS'maximum_size'
p989
S'14336'
p990
sS'protocol'
p991
S'arduino'
p992
ssaa(lp993
S'atmega168'
p994
a(dp995
S'bootloader'
p996
(dp997
S'extended_fuses'
p998
S'0x00'
p999
sS'high_fuses'
p1000
S'0xdd'
p1001
sS'low_fuses'
p1002
S'0xff'
p1003
sS'lock_bits'
p1004
S'0x0F'
p1005
sS'file'
p1006
S'ATmegaBOOT_168_ng.hex'
p1007
sS'path'
p1008
S'atmega'
p1009
sS'unlock_bits'
p1010
S'0x3F'
p1011
ssS'build'
p1012
(dp1013
S'core'
p1014
S'arduino'
p1015
sS'mcu'
p1016
S'atmega168'
p1017
sS'f_cpu'
p1018
S'16000000L'
p1019
sS'variant'
p1020
S'standard'
p1021
ssS'name'
p1022
S'Arduino NG or older w/ ATmega168'
p1023
sS'upload'
p1024
(dp1025
S'speed'
p1026
S'19200'
p1027
sS'maximum_size'
p1028
S'14336'
p1029
sS'protocol'
p1030
S'arduino'
p1031
ssaa(lp1032
S'atmega8'
p1033
a(dp1034
S'bootloader'
p1035
(dp1036
S'high_fuses'
p1037
S'0xca'
p1038
sS'low_fuses'
p1039
S'0xdf'
p1040
sS'lock_bits'
p1041
S'0x0F'
p1042
sS'file'
p1043
S'ATmegaBOOT-prod-firmware-2009-11-07.hex'
p1044
sS'path'
p1045
S'atmega8'
p1046
sS'unlock_bits'
p1047
S'0x3F'
p1048
ssS'build'
p1049
(dp1050
S'core'
p1051
S'arduino'
p1052
sS'mcu'
p1053
S'atmega8'
p1054
sS'f_cpu'
p1055
S'16000000L'
p1056
sS'variant'
p1057
S'standard'
p1058
ssS'name'
p1059
S'Arduino NG or older w/ ATmega8'
p1060
sS'upload'
p1061
(dp1062
S'speed'
p1063
S'19200'
p1064
sS'maximum_size'
p1065
S'7168'
p1066
sS'protocol'
p1067
S'arduino'
p1068
ssaa(lp1069
S'robotControl'
p1070
a(dp1071
S'bootloader'
p1072
(dp1073
S'extended_fuses'
p1074
S'0xcb'
p1075
sS'high_fuses'
p1076
S'0xd8'
p1077
sS'low_fuses'
p1078
S'0xff'
p1079
sS'lock_bits'
p1080
S'0x2F'
p1081
sS'file'
p1082
S'Caterina-Robot-Control.hex'
p1083
sS'path'
p1084
S'caterina-Arduino_Robot'
p1085
sS'unlock_bits'
p1086
S'0x3F'
p1087
ssS'build'
p1088
(dp1089
S'core'
p1090
S'robot'
p1091
sS'f_cpu'
p1092
S'16000000L'
p1093
sS'vid'
p1094
S'0x2341'
p1095
sS'pid'
p1096
S'0x8038'
p1097
sS'variant'
p1098
S'robot_control'
p1099
sS'mcu'
p1100
S'atmega32u4'
p1101
ssS'name'
p1102
S'Arduino Robot Control'
p1103
sS'upload'
p1104
(dp1105
S'speed'
p1106
S'57600'
p1107
sS'maximum_size'
p1108
S'28672'
p1109
sS'protocol'
p1110
S'avr109'
p1111
sS'disable_flushing'
p1112
S'true'
p1113
ssaa(lp1114
S'robotMotor'
p1115
a(dp1116
S'bootloader'
p1117
(dp1118
S'extended_fuses'
p1119
S'0xcb'
p1120
sS'high_fuses'
p1121
S'0xd8'
p1122
sS'low_fuses'
p1123
S'0xff'
p1124
sS'lock_bits'
p1125
S'0x2F'
p1126
sS'file'
p1127
S'Caterina-Robot-Motor.hex'
p1128
sS'path'
p1129
S'caterina-Arduino_Robot'
p1130
sS'unlock_bits'
p1131
S'0x3F'
p1132
ssS'build'
p1133
(dp1134
S'core'
p1135
S'robot'
p1136
sS'f_cpu'
p1137
S'16000000L'
p1138
sS'vid'
p1139
S'0x2341'
p1140
sS'pid'
p1141
S'0x8039'
p1142
sS'variant'
p1143
S'robot_motor'
p1144
sS'mcu'
p1145
S'atmega32u4'
p1146
ssS'name'
p1147
S'Arduino Robot Motor'
p1148
sS'upload'
p1149
(dp1150
S'speed'
p1151
S'57600'
p1152
sS'maximum_size'
p1153
S'28672'
p1154
sS'protocol'
p1155
S'avr109'
p1156
sS'disable_flushing'
p1157
S'true'
p1158
ssaatp1159
Rp1160
(dp1161
S'default'
p1162
S'uno'
p1163
sbtp1164
a(S'used_libs'
p1165
(lp1166
S'/Applications/Arduino.app/Contents/Resources/Java/libraries/EEPROM'
p1167
aS'lib/LiquidCrystal'
p1168
aS'lib/Wire'
p1169
aS'/Applications/Arduino.app/Contents/Resources/Java/hardware/arduino/cores/arduino'
p1170
atp1171
a(S'make'
p1172
S'/Applications/Arduino.app/Contents/Resources/Java/hardware/tools/avr/bin/make'
p1173
tp1174
a(S'build_dir'
p1175
S'.build/uno'
p1176
tp1177
a(S'cxx'
p1178
S'/Applications/Arduino.app/Contents/Resources/Java/hardware/tools/avr/bin/avr-g++'
p1179
tp1180
a(S'cflags'
p1181
g2
(g3
g4
(lp1182
tp1183
Rp1184
tp1185
a(S'cxxflags'
p1186
g2
(g3
g4
(lp1187
S'-fno-exceptions'
p1188
atp1189
Rp1190
tp1191
a(S'arduino_variants_dir'
p1192
S'/Applications/Arduino.app/Contents/Resources/Java/hardware/arduino/variants'
p1193
tp1194
a(S'stty'
p1195
S'/bin/stty'
p1196
tp1197
a(S'version.txt'
p1198
S'/Applications/Arduino.app/Contents/Resources/Java/lib/version.txt'
p1199
tp1200
a(S'arduino_core_dir'
p1201
g1170
tp1202
a(S'boards.txt'
p1203
S'/Applications/Arduino.app/Contents/Resources/Java/hardware/arduino/boards.txt'
p1204
tp1205
a(S'avrdude.conf'
p1206
S'/Applications/Arduino.app/Contents/Resources/Java/hardware/tools/avr/etc/avrdude.conf'
p1207
tp1208
a(S'deps'
p1209
g2
(g3
g4
(lp1210
S'.build/uno/src/dependencies.d'
p1211
aS'.build/uno/arduino/dependencies.d'
p1212
aS'.build/uno/EEPROM/dependencies.d'
p1213
aS'.build/uno/LiquidCrystal/dependencies.d'
p1214
aS'.build/uno/Wire/dependencies.d'
p1215
atp1216
Rp1217
tp1218
a.